target datalayout = "e-m:e-p270:32:32-p271:32:32-p272:64:64-i64:64-i128:128-f80:128-n8:16:32:64-S128"
target triple = "x86_64-pc-linux-gnu"

%struct.BuildCtx = type { ptr, i32, ptr, ptr, ptr, ptr, i64, i32, i32, i32, i32, i32, ptr, ptr, ptr, ptr, ptr, ptr, ptr, ptr, ptr, [200 x %struct.BuildReloc] }
%struct.BuildReloc = type { i32, i32, i32 }
%struct.dasm_State = type { i64, ptr, ptr, i64, ptr, i64, ptr, ptr, i64, i32, i32, [1 x %struct.dasm_Section] }
%struct.dasm_Section = type { ptr, ptr, i64, i32, i32, i32 }

; Function Attrs: nounwind uwtable
define dso_local void @dasm_setup(ptr noundef %0, ptr noundef %1) #0 {
  %3 = alloca ptr, align 8
  %4 = alloca ptr, align 8
  %5 = alloca ptr, align 8
  %6 = alloca i32, align 4
  store ptr %0, ptr %3, align 8, !tbaa !4
  store ptr %1, ptr %4, align 8, !tbaa !36
  call void @llvm.lifetime.start.p0(i64 8, ptr %5) #12
  %7 = load ptr, ptr %3, align 8, !tbaa !4
  %8 = getelementptr inbounds nuw %struct.BuildCtx, ptr %7, i32 0, i32 0
  %9 = load ptr, ptr %8, align 8, !tbaa !13
  store ptr %9, ptr %5, align 8, !tbaa !23
  call void @llvm.lifetime.start.p0(i64 4, ptr %6) #12
  %10 = load ptr, ptr %4, align 8, !tbaa !36
  %11 = load ptr, ptr %5, align 8, !tbaa !23
  %12 = getelementptr inbounds nuw %struct.dasm_State, ptr %11, i32 0, i32 1
  store ptr %10, ptr %12, align 8, !tbaa !39
  %13 = load ptr, ptr %5, align 8, !tbaa !23
  %14 = getelementptr inbounds nuw %struct.dasm_State, ptr %13, i32 0, i32 10
  store i32 0, ptr %14, align 4, !tbaa !40
  %15 = load ptr, ptr %5, align 8, !tbaa !23
  %16 = getelementptr inbounds nuw %struct.dasm_State, ptr %15, i32 0, i32 11
  %17 = getelementptr inbounds [1 x %struct.dasm_Section], ptr %16, i64 0, i64 0
  %18 = load ptr, ptr %5, align 8, !tbaa !23
  %19 = getelementptr inbounds nuw %struct.dasm_State, ptr %18, i32 0, i32 7
  store ptr %17, ptr %19, align 8, !tbaa !41
  %20 = load ptr, ptr %5, align 8, !tbaa !23
  %21 = getelementptr inbounds nuw %struct.dasm_State, ptr %20, i32 0, i32 2
  %22 = load ptr, ptr %21, align 8, !tbaa !27
  %23 = load ptr, ptr %5, align 8, !tbaa !23
  %24 = getelementptr inbounds nuw %struct.dasm_State, ptr %23, i32 0, i32 3
  %25 = load i64, ptr %24, align 8, !tbaa !28
  call void @llvm.memset.p0.i64(ptr align 1 %22, i8 0, i64 %25, i1 false)
  %26 = load ptr, ptr %5, align 8, !tbaa !23
  %27 = getelementptr inbounds nuw %struct.dasm_State, ptr %26, i32 0, i32 4
  %28 = load ptr, ptr %27, align 8, !tbaa !29
  %29 = icmp ne ptr %28, null
  br i1 %29, label %30, label %37

30:                                               ; preds = %2
  %31 = load ptr, ptr %5, align 8, !tbaa !23
  %32 = getelementptr inbounds nuw %struct.dasm_State, ptr %31, i32 0, i32 4
  %33 = load ptr, ptr %32, align 8, !tbaa !29
  %34 = load ptr, ptr %5, align 8, !tbaa !23
  %35 = getelementptr inbounds nuw %struct.dasm_State, ptr %34, i32 0, i32 5
  %36 = load i64, ptr %35, align 8, !tbaa !30
  call void @llvm.memset.p0.i64(ptr align 1 %33, i8 0, i64 %36, i1 false)
  br label %37

37:                                               ; preds = %30, %2
  store i32 0, ptr %6, align 4, !tbaa !9
  br label %38

38:                                               ; preds = %82, %37
  %39 = load i32, ptr %6, align 4, !tbaa !9
  %40 = load ptr, ptr %5, align 8, !tbaa !23
  %41 = getelementptr inbounds nuw %struct.dasm_State, ptr %40, i32 0, i32 9
  %42 = load i32, ptr %41, align 8, !tbaa !32
  %43 = icmp slt i32 %39, %42
  br i1 %43, label %44, label %85

44:                                               ; preds = %38
  %45 = load i32, ptr %6, align 4, !tbaa !9
  %46 = shl i32 %45, 24
  %47 = load ptr, ptr %5, align 8, !tbaa !23
  %48 = getelementptr inbounds nuw %struct.dasm_State, ptr %47, i32 0, i32 11
  %49 = load i32, ptr %6, align 4, !tbaa !9
  %50 = sext i32 %49 to i64
  %51 = getelementptr inbounds [1 x %struct.dasm_Section], ptr %48, i64 0, i64 %50
  %52 = getelementptr inbounds nuw %struct.dasm_Section, ptr %51, i32 0, i32 3
  store i32 %46, ptr %52, align 8, !tbaa !42
  %53 = load ptr, ptr %5, align 8, !tbaa !23
  %54 = getelementptr inbounds nuw %struct.dasm_State, ptr %53, i32 0, i32 11
  %55 = load i32, ptr %6, align 4, !tbaa !9
  %56 = sext i32 %55 to i64
  %57 = getelementptr inbounds [1 x %struct.dasm_Section], ptr %54, i64 0, i64 %56
  %58 = getelementptr inbounds nuw %struct.dasm_Section, ptr %57, i32 0, i32 1
  %59 = load ptr, ptr %58, align 8, !tbaa !33
  %60 = load ptr, ptr %5, align 8, !tbaa !23
  %61 = getelementptr inbounds nuw %struct.dasm_State, ptr %60, i32 0, i32 11
  %62 = load i32, ptr %6, align 4, !tbaa !9
  %63 = sext i32 %62 to i64
  %64 = getelementptr inbounds [1 x %struct.dasm_Section], ptr %61, i64 0, i64 %63
  %65 = getelementptr inbounds nuw %struct.dasm_Section, ptr %64, i32 0, i32 3
  %66 = load i32, ptr %65, align 8, !tbaa !42
  %67 = sext i32 %66 to i64
  %68 = sub i64 0, %67
  %69 = getelementptr inbounds i32, ptr %59, i64 %68
  %70 = load ptr, ptr %5, align 8, !tbaa !23
  %71 = getelementptr inbounds nuw %struct.dasm_State, ptr %70, i32 0, i32 11
  %72 = load i32, ptr %6, align 4, !tbaa !9
  %73 = sext i32 %72 to i64
  %74 = getelementptr inbounds [1 x %struct.dasm_Section], ptr %71, i64 0, i64 %73
  %75 = getelementptr inbounds nuw %struct.dasm_Section, ptr %74, i32 0, i32 0
  store ptr %69, ptr %75, align 8, !tbaa !43
  %76 = load ptr, ptr %5, align 8, !tbaa !23
  %77 = getelementptr inbounds nuw %struct.dasm_State, ptr %76, i32 0, i32 11
  %78 = load i32, ptr %6, align 4, !tbaa !9
  %79 = sext i32 %78 to i64
  %80 = getelementptr inbounds [1 x %struct.dasm_Section], ptr %77, i64 0, i64 %79
  %81 = getelementptr inbounds nuw %struct.dasm_Section, ptr %80, i32 0, i32 5
  store i32 0, ptr %81, align 8, !tbaa !44
  br label %82

82:                                               ; preds = %44
  %83 = load i32, ptr %6, align 4, !tbaa !9
  %84 = add nsw i32 %83, 1
  store i32 %84, ptr %6, align 4, !tbaa !9
  br label %38, !llvm.loop !45

85:                                               ; preds = %38
  call void @llvm.lifetime.end.p0(i64 4, ptr %6) #12
  call void @llvm.lifetime.end.p0(i64 8, ptr %5) #12
  ret void
}