; Function Attrs: nofree norecurse nosync nounwind memory(readwrite, inaccessiblemem: none) uwtable
define dso_local void @dasm_setup(ptr noundef readonly captures(none) %0, ptr noundef %1) local_unnamed_addr #7 {
  %3 = load ptr, ptr %0, align 8, !tbaa !4
  %4 = getelementptr inbounds nuw i8, ptr %3, i64 8
  store ptr %1, ptr %4, align 8, !tbaa !33
  %5 = getelementptr inbounds nuw i8, ptr %3, i64 76
  store i32 0, ptr %5, align 4, !tbaa !34
  %6 = getelementptr inbounds nuw i8, ptr %3, i64 80
  %7 = getelementptr inbounds nuw i8, ptr %3, i64 56
  store ptr %6, ptr %7, align 8, !tbaa !35
  %8 = getelementptr inbounds nuw i8, ptr %3, i64 16
  %9 = load ptr, ptr %8, align 8, !tbaa !27
  %10 = getelementptr inbounds nuw i8, ptr %3, i64 24
  %11 = load i64, ptr %10, align 8, !tbaa !29
  tail call void @llvm.memset.p0.i64(ptr align 1 %9, i8 0, i64 %11, i1 false)
  %12 = getelementptr inbounds nuw i8, ptr %3, i64 32
  %13 = load ptr, ptr %12, align 8, !tbaa !26
  %.not = icmp eq ptr %13, null
  br i1 %.not, label %17, label %14

14:                                               ; preds = %2
  %15 = getelementptr inbounds nuw i8, ptr %3, i64 40
  %16 = load i64, ptr %15, align 8, !tbaa !31
  tail call void @llvm.memset.p0.i64(ptr nonnull align 1 %13, i8 0, i64 %16, i1 false)
  br label %17

17:                                               ; preds = %14, %2
  %18 = getelementptr inbounds nuw i8, ptr %3, i64 72
  %19 = load i32, ptr %18, align 8, !tbaa !22
  %20 = icmp sgt i32 %19, 0
  br i1 %20, label %.lr.ph.preheader, label %._crit_edge

.lr.ph.preheader:                                 ; preds = %17
  %wide.trip.count = zext nneg i32 %19 to i64
  br label %.lr.ph

.lr.ph:                                           ; preds = %.lr.ph.preheader, %.lr.ph
  %indvars.iv = phi i64 [ 0, %.lr.ph.preheader ], [ %indvars.iv.next, %.lr.ph ]
  %21 = trunc nuw nsw i64 %indvars.iv to i32
  %22 = shl i32 %21, 24
  %23 = getelementptr inbounds nuw [1 x %struct.dasm_Section], ptr %6, i64 0, i64 %indvars.iv
  %24 = getelementptr inbounds nuw i8, ptr %23, i64 24
  store i32 %22, ptr %24, align 8, !tbaa !36
  %25 = getelementptr inbounds nuw i8, ptr %23, i64 8
  %26 = load ptr, ptr %25, align 8, !tbaa !23
  %27 = sext i32 %22 to i64
  %28 = sub nsw i64 0, %27
  %29 = getelementptr inbounds i32, ptr %26, i64 %28
  store ptr %29, ptr %23, align 8, !tbaa !37
  %30 = getelementptr inbounds nuw i8, ptr %23, i64 32
  store i32 0, ptr %30, align 8, !tbaa !38
  %indvars.iv.next = add nuw nsw i64 %indvars.iv, 1
  %exitcond.not = icmp eq i64 %indvars.iv.next, %wide.trip.count
  br i1 %exitcond.not, label %._crit_edge, label %.lr.ph, !llvm.loop !39

._crit_edge:                                      ; preds = %.lr.ph, %17
  ret void
}